target datalayout = "e-m:e-p270:32:32-p271:32:32-p272:64:64-i64:64-i128:128-f80:128-n8:16:32:64-S128"
target triple = "x86_64-pc-linux-gnu"

%struct.lxb_html_tokenizer = type { ptr, ptr, ptr, ptr, ptr, ptr, ptr, ptr, ptr, ptr, ptr, ptr, ptr, ptr, ptr, i64, ptr, ptr, ptr, ptr, ptr, i64, i64, ptr, ptr, i64, i64, i32, i32, i8, i32, i32, i8, ptr, i64 }
%struct.lxb_html_token_t = type { ptr, ptr, i64, i64, ptr, ptr, ptr, ptr, ptr, i64, i64, i32 }

@.str = private unnamed_addr constant [2 x i8] c"-\00", align 1

; Function Attrs: nounwind uwtable
define internal i32 @lxb_html_tokenizer_temp_realloc(ptr noundef %0, i64 noundef %1) #0 {
  %3 = alloca i32, align 4
  %4 = alloca ptr, align 8
  %5 = alloca i64, align 8
  %6 = alloca i64, align 8
  %7 = alloca i64, align 8
  store ptr %0, ptr %4, align 8
  store i64 %1, ptr %5, align 8
  %8 = load ptr, ptr %4, align 8
  %9 = getelementptr inbounds %struct.lxb_html_tokenizer, ptr %8, i32 0, i32 17
  %10 = load ptr, ptr %9, align 8
  %11 = load ptr, ptr %4, align 8
  %12 = getelementptr inbounds %struct.lxb_html_tokenizer, ptr %11, i32 0, i32 16
  %13 = load ptr, ptr %12, align 8
  %14 = ptrtoint ptr %10 to i64
  %15 = ptrtoint ptr %13 to i64
  %16 = sub i64 %14, %15
  store i64 %16, ptr %6, align 8
  %17 = load ptr, ptr %4, align 8
  %18 = getelementptr inbounds %struct.lxb_html_tokenizer, ptr %17, i32 0, i32 18
  %19 = load ptr, ptr %18, align 8
  %20 = load ptr, ptr %4, align 8
  %21 = getelementptr inbounds %struct.lxb_html_tokenizer, ptr %20, i32 0, i32 16
  %22 = load ptr, ptr %21, align 8
  %23 = ptrtoint ptr %19 to i64
  %24 = ptrtoint ptr %22 to i64
  %25 = sub i64 %23, %24
  %26 = load i64, ptr %5, align 8
  %27 = add i64 %25, %26
  %28 = add i64 %27, 4096
  store i64 %28, ptr %7, align 8
  %29 = load ptr, ptr %4, align 8
  %30 = getelementptr inbounds %struct.lxb_html_tokenizer, ptr %29, i32 0, i32 16
  %31 = load ptr, ptr %30, align 8
  %32 = load i64, ptr %7, align 8
  %33 = call ptr @lexbor_realloc(ptr noundef %31, i64 noundef %32)
  %34 = load ptr, ptr %4, align 8
  %35 = getelementptr inbounds %struct.lxb_html_tokenizer, ptr %34, i32 0, i32 16
  store ptr %33, ptr %35, align 8
  %36 = load ptr, ptr %4, align 8
  %37 = getelementptr inbounds %struct.lxb_html_tokenizer, ptr %36, i32 0, i32 16
  %38 = load ptr, ptr %37, align 8
  %39 = icmp eq ptr %38, null
  br i1 %39, label %40, label %46

40:                                               ; preds = %2
  %41 = load ptr, ptr %4, align 8
  %42 = getelementptr inbounds %struct.lxb_html_tokenizer, ptr %41, i32 0, i32 31
  store i32 2, ptr %42, align 8
  %43 = load ptr, ptr %4, align 8
  %44 = getelementptr inbounds %struct.lxb_html_tokenizer, ptr %43, i32 0, i32 31
  %45 = load i32, ptr %44, align 8
  store i32 %45, ptr %3, align 4
  br label %61

46:                                               ; preds = %2
  %47 = load ptr, ptr %4, align 8
  %48 = getelementptr inbounds %struct.lxb_html_tokenizer, ptr %47, i32 0, i32 16
  %49 = load ptr, ptr %48, align 8
  %50 = load i64, ptr %6, align 8
  %51 = getelementptr inbounds i8, ptr %49, i64 %50
  %52 = load ptr, ptr %4, align 8
  %53 = getelementptr inbounds %struct.lxb_html_tokenizer, ptr %52, i32 0, i32 17
  store ptr %51, ptr %53, align 8
  %54 = load ptr, ptr %4, align 8
  %55 = getelementptr inbounds %struct.lxb_html_tokenizer, ptr %54, i32 0, i32 16
  %56 = load ptr, ptr %55, align 8
  %57 = load i64, ptr %7, align 8
  %58 = getelementptr inbounds i8, ptr %56, i64 %57
  %59 = load ptr, ptr %4, align 8
  %60 = getelementptr inbounds %struct.lxb_html_tokenizer, ptr %59, i32 0, i32 18
  store ptr %58, ptr %60, align 8
  store i32 0, ptr %3, align 4
  br label %61

61:                                               ; preds = %46, %40
  %62 = load i32, ptr %3, align 4
  ret i32 %62
}

; Function Attrs: nounwind uwtable
define internal i32 @lxb_html_tokenizer_temp_append(ptr noundef %0, ptr noundef %1, i64 noundef %2) #0 {
  %4 = alloca i32, align 4
  %5 = alloca ptr, align 8
  %6 = alloca ptr, align 8
  %7 = alloca i64, align 8
  store ptr %0, ptr %5, align 8
  store ptr %1, ptr %6, align 8
  store i64 %2, ptr %7, align 8
  %8 = load ptr, ptr %5, align 8
  %9 = getelementptr inbounds %struct.lxb_html_tokenizer, ptr %8, i32 0, i32 17
  %10 = load ptr, ptr %9, align 8
  %11 = load i64, ptr %7, align 8
  %12 = getelementptr inbounds i8, ptr %10, i64 %11
  %13 = load ptr, ptr %5, align 8
  %14 = getelementptr inbounds %struct.lxb_html_tokenizer, ptr %13, i32 0, i32 18
  %15 = load ptr, ptr %14, align 8
  %16 = icmp ugt ptr %12, %15
  br i1 %16, label %17, label %27

17:                                               ; preds = %3
  %18 = load ptr, ptr %5, align 8
  %19 = load i64, ptr %7, align 8
  %20 = call i32 @lxb_html_tokenizer_temp_realloc(ptr noundef %18, i64 noundef %19)
  %21 = icmp ne i32 %20, 0
  br i1 %21, label %22, label %26

22:                                               ; preds = %17
  %23 = load ptr, ptr %5, align 8
  %24 = getelementptr inbounds %struct.lxb_html_tokenizer, ptr %23, i32 0, i32 31
  %25 = load i32, ptr %24, align 8
  store i32 %25, ptr %4, align 4
  br label %37

26:                                               ; preds = %17
  br label %27

27:                                               ; preds = %26, %3
  %28 = load ptr, ptr %5, align 8
  %29 = getelementptr inbounds %struct.lxb_html_tokenizer, ptr %28, i32 0, i32 17
  %30 = load ptr, ptr %29, align 8
  %31 = load ptr, ptr %6, align 8
  %32 = load i64, ptr %7, align 8
  call void @llvm.memcpy.p0.p0.i64(ptr align 1 %30, ptr align 1 %31, i64 %32, i1 false)
  %33 = load i64, ptr %7, align 8
  %34 = getelementptr inbounds i8, ptr %30, i64 %33
  %35 = load ptr, ptr %5, align 8
  %36 = getelementptr inbounds %struct.lxb_html_tokenizer, ptr %35, i32 0, i32 17
  store ptr %34, ptr %36, align 8
  store i32 0, ptr %4, align 4
  br label %37

37:                                               ; preds = %27, %22
  %38 = load i32, ptr %4, align 4
  ret i32 %38
}

; Function Attrs: nounwind uwtable
define internal void @lxb_html_token_clean(ptr noundef %0) #0 {
  %2 = alloca ptr, align 8
  store ptr %0, ptr %2, align 8
  %3 = load ptr, ptr %2, align 8
  call void @llvm.memset.p0.i64(ptr align 8 %3, i8 0, i64 96, i1 false)
  ret void
}

; Function Attrs: nounwind uwtable
define internal ptr @lxb_html_tokenizer_state_comment_start_dash(ptr noundef %0, ptr noundef %1, ptr noundef %2) #0 {
  %4 = alloca ptr, align 8
  %5 = alloca ptr, align 8
  %6 = alloca ptr, align 8
  %7 = alloca ptr, align 8
  store ptr %0, ptr %5, align 8
  store ptr %1, ptr %6, align 8
  store ptr %2, ptr %7, align 8
  %8 = load ptr, ptr %6, align 8
  %9 = load i8, ptr %8, align 1
  %10 = zext i8 %9 to i32
  %11 = icmp eq i32 %10, 45
  br i1 %11, label %12, label %17

12:                                               ; preds = %3
  %13 = load ptr, ptr %5, align 8
  %14 = getelementptr inbounds %struct.lxb_html_tokenizer, ptr %13, i32 0, i32 0
  store ptr @lxb_html_tokenizer_state_comment_end, ptr %14, align 8
  %15 = load ptr, ptr %6, align 8
  %16 = getelementptr inbounds i8, ptr %15, i64 1
  store ptr %16, ptr %4, align 8
  br label %172

17:                                               ; preds = %3
  %18 = load ptr, ptr %6, align 8
  %19 = load i8, ptr %18, align 1
  %20 = zext i8 %19 to i32
  %21 = icmp eq i32 %20, 62
  br i1 %21, label %22, label %81

22:                                               ; preds = %17
  %23 = load ptr, ptr %5, align 8
  %24 = getelementptr inbounds %struct.lxb_html_tokenizer, ptr %23, i32 0, i32 0
  store ptr @lxb_html_tokenizer_state_data_before, ptr %24, align 8
  %25 = load ptr, ptr %5, align 8
  %26 = getelementptr inbounds %struct.lxb_html_tokenizer, ptr %25, i32 0, i32 11
  %27 = load ptr, ptr %26, align 8
  %28 = load ptr, ptr %6, align 8
  %29 = call ptr @lxb_html_tokenizer_error_add(ptr noundef %27, ptr noundef %28, i32 noundef 0)
  br label %30

30:                                               ; preds = %22
  %31 = load ptr, ptr %5, align 8
  %32 = getelementptr inbounds %struct.lxb_html_tokenizer, ptr %31, i32 0, i32 16
  %33 = load ptr, ptr %32, align 8
  %34 = load ptr, ptr %5, align 8
  %35 = getelementptr inbounds %struct.lxb_html_tokenizer, ptr %34, i32 0, i32 8
  %36 = load ptr, ptr %35, align 8
  %37 = getelementptr inbounds %struct.lxb_html_token_t, ptr %36, i32 0, i32 4
  store ptr %33, ptr %37, align 8
  %38 = load ptr, ptr %5, align 8
  %39 = getelementptr inbounds %struct.lxb_html_tokenizer, ptr %38, i32 0, i32 17
  %40 = load ptr, ptr %39, align 8
  %41 = load ptr, ptr %5, align 8
  %42 = getelementptr inbounds %struct.lxb_html_tokenizer, ptr %41, i32 0, i32 8
  %43 = load ptr, ptr %42, align 8
  %44 = getelementptr inbounds %struct.lxb_html_token_t, ptr %43, i32 0, i32 5
  store ptr %40, ptr %44, align 8
  br label %45

45:                                               ; preds = %30
  br label %46

46:                                               ; preds = %45
  %47 = load ptr, ptr %5, align 8
  %48 = getelementptr inbounds %struct.lxb_html_tokenizer, ptr %47, i32 0, i32 2
  %49 = load ptr, ptr %48, align 8
  %50 = load ptr, ptr %5, align 8
  %51 = load ptr, ptr %5, align 8
  %52 = getelementptr inbounds %struct.lxb_html_tokenizer, ptr %51, i32 0, i32 8
  %53 = load ptr, ptr %52, align 8
  %54 = load ptr, ptr %5, align 8
  %55 = getelementptr inbounds %struct.lxb_html_tokenizer, ptr %54, i32 0, i32 3
  %56 = load ptr, ptr %55, align 8
  %57 = call ptr %49(ptr noundef %50, ptr noundef %53, ptr noundef %56)
  %58 = load ptr, ptr %5, align 8
  %59 = getelementptr inbounds %struct.lxb_html_tokenizer, ptr %58, i32 0, i32 8
  store ptr %57, ptr %59, align 8
  %60 = load ptr, ptr %5, align 8
  %61 = getelementptr inbounds %struct.lxb_html_tokenizer, ptr %60, i32 0, i32 8
  %62 = load ptr, ptr %61, align 8
  %63 = icmp eq ptr %62, null
  br i1 %63, label %64, label %74

64:                                               ; preds = %46
  %65 = load ptr, ptr %5, align 8
  %66 = getelementptr inbounds %struct.lxb_html_tokenizer, ptr %65, i32 0, i32 31
  %67 = load i32, ptr %66, align 8
  %68 = icmp eq i32 %67, 0
  br i1 %68, label %69, label %72

69:                                               ; preds = %64
  %70 = load ptr, ptr %5, align 8
  %71 = getelementptr inbounds %struct.lxb_html_tokenizer, ptr %70, i32 0, i32 31
  store i32 1, ptr %71, align 8
  br label %72

72:                                               ; preds = %69, %64
  %73 = load ptr, ptr %7, align 8
  store ptr %73, ptr %4, align 8
  br label %172

74:                                               ; preds = %46
  %75 = load ptr, ptr %5, align 8
  %76 = getelementptr inbounds %struct.lxb_html_tokenizer, ptr %75, i32 0, i32 8
  %77 = load ptr, ptr %76, align 8
  call void @lxb_html_token_clean(ptr noundef %77)
  br label %78

78:                                               ; preds = %74
  %79 = load ptr, ptr %6, align 8
  %80 = getelementptr inbounds i8, ptr %79, i64 1
  store ptr %80, ptr %4, align 8
  br label %172

81:                                               ; preds = %17
  %82 = load ptr, ptr %6, align 8
  %83 = load i8, ptr %82, align 1
  %84 = zext i8 %83 to i32
  %85 = icmp eq i32 %84, 0
  br i1 %85, label %86, label %158

86:                                               ; preds = %81
  %87 = load ptr, ptr %5, align 8
  %88 = getelementptr inbounds %struct.lxb_html_tokenizer, ptr %87, i32 0, i32 32
  %89 = load i8, ptr %88, align 4
  %90 = trunc i8 %89 to i1
  br i1 %90, label %91, label %157

91:                                               ; preds = %86
  br label %92

92:                                               ; preds = %91
  %93 = load ptr, ptr %5, align 8
  %94 = call i32 @lxb_html_tokenizer_temp_append(ptr noundef %93, ptr noundef @.str, i64 noundef 1)
  %95 = icmp ne i32 %94, 0
  br i1 %95, label %96, label %98

96:                                               ; preds = %92
  %97 = load ptr, ptr %7, align 8
  store ptr %97, ptr %4, align 8
  br label %172

98:                                               ; preds = %92
  br label %99

99:                                               ; preds = %98
  %100 = load ptr, ptr %5, align 8
  %101 = getelementptr inbounds %struct.lxb_html_tokenizer, ptr %100, i32 0, i32 11
  %102 = load ptr, ptr %101, align 8
  %103 = load ptr, ptr %5, align 8
  %104 = getelementptr inbounds %struct.lxb_html_tokenizer, ptr %103, i32 0, i32 20
  %105 = load ptr, ptr %104, align 8
  %106 = call ptr @lxb_html_tokenizer_error_add(ptr noundef %102, ptr noundef %105, i32 noundef 13)
  br label %107

107:                                              ; preds = %99
  %108 = load ptr, ptr %5, align 8
  %109 = getelementptr inbounds %struct.lxb_html_tokenizer, ptr %108, i32 0, i32 16
  %110 = load ptr, ptr %109, align 8
  %111 = load ptr, ptr %5, align 8
  %112 = getelementptr inbounds %struct.lxb_html_tokenizer, ptr %111, i32 0, i32 8
  %113 = load ptr, ptr %112, align 8
  %114 = getelementptr inbounds %struct.lxb_html_token_t, ptr %113, i32 0, i32 4
  store ptr %110, ptr %114, align 8
  %115 = load ptr, ptr %5, align 8
  %116 = getelementptr inbounds %struct.lxb_html_tokenizer, ptr %115, i32 0, i32 17
  %117 = load ptr, ptr %116, align 8
  %118 = load ptr, ptr %5, align 8
  %119 = getelementptr inbounds %struct.lxb_html_tokenizer, ptr %118, i32 0, i32 8
  %120 = load ptr, ptr %119, align 8
  %121 = getelementptr inbounds %struct.lxb_html_token_t, ptr %120, i32 0, i32 5
  store ptr %117, ptr %121, align 8
  br label %122

122:                                              ; preds = %107
  br label %123

123:                                              ; preds = %122
  %124 = load ptr, ptr %5, align 8
  %125 = getelementptr inbounds %struct.lxb_html_tokenizer, ptr %124, i32 0, i32 2
  %126 = load ptr, ptr %125, align 8
  %127 = load ptr, ptr %5, align 8
  %128 = load ptr, ptr %5, align 8
  %129 = getelementptr inbounds %struct.lxb_html_tokenizer, ptr %128, i32 0, i32 8
  %130 = load ptr, ptr %129, align 8
  %131 = load ptr, ptr %5, align 8
  %132 = getelementptr inbounds %struct.lxb_html_tokenizer, ptr %131, i32 0, i32 3
  %133 = load ptr, ptr %132, align 8
  %134 = call ptr %126(ptr noundef %127, ptr noundef %130, ptr noundef %133)
  %135 = load ptr, ptr %5, align 8
  %136 = getelementptr inbounds %struct.lxb_html_tokenizer, ptr %135, i32 0, i32 8
  store ptr %134, ptr %136, align 8
  %137 = load ptr, ptr %5, align 8
  %138 = getelementptr inbounds %struct.lxb_html_tokenizer, ptr %137, i32 0, i32 8
  %139 = load ptr, ptr %138, align 8
  %140 = icmp eq ptr %139, null
  br i1 %140, label %141, label %151

141:                                              ; preds = %123
  %142 = load ptr, ptr %5, align 8
  %143 = getelementptr inbounds %struct.lxb_html_tokenizer, ptr %142, i32 0, i32 31
  %144 = load i32, ptr %143, align 8
  %145 = icmp eq i32 %144, 0
  br i1 %145, label %146, label %149

146:                                              ; preds = %141
  %147 = load ptr, ptr %5, align 8
  %148 = getelementptr inbounds %struct.lxb_html_tokenizer, ptr %147, i32 0, i32 31
  store i32 1, ptr %148, align 8
  br label %149

149:                                              ; preds = %146, %141
  %150 = load ptr, ptr %7, align 8
  store ptr %150, ptr %4, align 8
  br label %172

151:                                              ; preds = %123
  %152 = load ptr, ptr %5, align 8
  %153 = getelementptr inbounds %struct.lxb_html_tokenizer, ptr %152, i32 0, i32 8
  %154 = load ptr, ptr %153, align 8
  call void @lxb_html_token_clean(ptr noundef %154)
  br label %155

155:                                              ; preds = %151
  %156 = load ptr, ptr %7, align 8
  store ptr %156, ptr %4, align 8
  br label %172

157:                                              ; preds = %86
  br label %158

158:                                              ; preds = %157, %81
  br label %159

159:                                              ; preds = %158
  br label %160

160:                                              ; preds = %159
  br label %161

161:                                              ; preds = %160
  %162 = load ptr, ptr %5, align 8
  %163 = call i32 @lxb_html_tokenizer_temp_append(ptr noundef %162, ptr noundef @.str, i64 noundef 1)
  %164 = icmp ne i32 %163, 0
  br i1 %164, label %165, label %167

165:                                              ; preds = %161
  %166 = load ptr, ptr %7, align 8
  store ptr %166, ptr %4, align 8
  br label %172

167:                                              ; preds = %161
  br label %168

168:                                              ; preds = %167
  %169 = load ptr, ptr %5, align 8
  %170 = getelementptr inbounds %struct.lxb_html_tokenizer, ptr %169, i32 0, i32 0
  store ptr @lxb_html_tokenizer_state_comment, ptr %170, align 8
  %171 = load ptr, ptr %6, align 8
  store ptr %171, ptr %4, align 8
  br label %172

172:                                              ; preds = %168, %165, %155, %149, %96, %78, %72, %12
  %173 = load ptr, ptr %4, align 8
  ret ptr %173
}