; Function Attrs: nounwind uwtable
define internal ptr @lxb_html_tokenizer_state_comment_start_dash(ptr noundef %0, ptr noundef %1, ptr noundef readnone %2) #0 {
  %4 = load i8, ptr %1, align 1
  switch i8 %4, label %88 [
    i8 45, label %5
    i8 62, label %7
    i8 0, label %34
  ]

5:                                                ; preds = %3
  store ptr @lxb_html_tokenizer_state_comment_end, ptr %0, align 8
  %6 = getelementptr inbounds i8, ptr %1, i64 1
  br label %112

7:                                                ; preds = %3
  store ptr @lxb_html_tokenizer_state_data_before, ptr %0, align 8
  %8 = getelementptr inbounds i8, ptr %0, i64 88
  %9 = load ptr, ptr %8, align 8
  %10 = tail call ptr @lxb_html_tokenizer_error_add(ptr noundef %9, ptr noundef nonnull %1, i32 noundef 0) #5
  %11 = getelementptr inbounds i8, ptr %0, i64 128
  %12 = load ptr, ptr %11, align 8
  %13 = getelementptr inbounds i8, ptr %0, i64 64
  %14 = load ptr, ptr %13, align 8
  %15 = getelementptr inbounds i8, ptr %14, i64 32
  store ptr %12, ptr %15, align 8
  %16 = getelementptr inbounds i8, ptr %0, i64 136
  %17 = load ptr, ptr %16, align 8
  %18 = load ptr, ptr %13, align 8
  %19 = getelementptr inbounds i8, ptr %18, i64 40
  store ptr %17, ptr %19, align 8
  %20 = getelementptr inbounds i8, ptr %0, i64 16
  %21 = load ptr, ptr %20, align 8
  %22 = load ptr, ptr %13, align 8
  %23 = getelementptr inbounds i8, ptr %0, i64 24
  %24 = load ptr, ptr %23, align 8
  %25 = tail call ptr %21(ptr noundef nonnull %0, ptr noundef %22, ptr noundef %24) #5
  store ptr %25, ptr %13, align 8
  %26 = icmp eq ptr %25, null
  br i1 %26, label %27, label %32

27:                                               ; preds = %7
  %28 = getelementptr inbounds i8, ptr %0, i64 232
  %29 = load i32, ptr %28, align 8
  %30 = icmp eq i32 %29, 0
  br i1 %30, label %31, label %112

31:                                               ; preds = %27
  store i32 1, ptr %28, align 8
  br label %112

32:                                               ; preds = %7
  tail call void @llvm.memset.p0.i64(ptr noundef nonnull align 8 dereferenceable(96) %25, i8 0, i64 96, i1 false)
  %33 = getelementptr inbounds i8, ptr %1, i64 1
  br label %112

34:                                               ; preds = %3
  %35 = getelementptr inbounds i8, ptr %0, i64 236
  %36 = load i8, ptr %35, align 4
  %37 = and i8 %36, 1
  %.not = icmp eq i8 %37, 0
  br i1 %.not, label %88, label %38

38:                                               ; preds = %34
  %39 = getelementptr inbounds i8, ptr %0, i64 136
  %40 = load ptr, ptr %39, align 8
  %41 = getelementptr inbounds i8, ptr %40, i64 1
  %42 = getelementptr inbounds i8, ptr %0, i64 144
  %43 = load ptr, ptr %42, align 8
  %44 = icmp ugt ptr %41, %43
  br i1 %44, label %45, label %59

45:                                               ; preds = %38
  %46 = getelementptr inbounds i8, ptr %0, i64 128
  %47 = load ptr, ptr %46, align 8
  %48 = ptrtoint ptr %47 to i64
  %49 = ptrtoint ptr %43 to i64
  %50 = add i64 %49, 4097
  %51 = sub i64 %50, %48
  %52 = tail call ptr @lexbor_realloc(ptr noundef %47, i64 noundef %51) #5
  store ptr %52, ptr %46, align 8
  %53 = icmp eq ptr %52, null
  br i1 %53, label %lxb_html_tokenizer_temp_append.exit, label %lxb_html_tokenizer_temp_realloc.exit.thread.i

lxb_html_tokenizer_temp_realloc.exit.thread.i:    ; preds = %45
  %54 = ptrtoint ptr %40 to i64
  %55 = sub i64 %54, %48
  %56 = getelementptr inbounds i8, ptr %52, i64 %55
  %57 = getelementptr inbounds i8, ptr %52, i64 %51
  store ptr %57, ptr %42, align 8
  br label %59

lxb_html_tokenizer_temp_append.exit:              ; preds = %45
  %58 = getelementptr inbounds i8, ptr %0, i64 232
  store i32 2, ptr %58, align 8
  br label %112

59:                                               ; preds = %38, %lxb_html_tokenizer_temp_realloc.exit.thread.i
  %60 = phi ptr [ %56, %lxb_html_tokenizer_temp_realloc.exit.thread.i ], [ %40, %38 ]
  store i8 45, ptr %60, align 1
  %61 = getelementptr inbounds i8, ptr %60, i64 1
  store ptr %61, ptr %39, align 8
  %62 = getelementptr inbounds i8, ptr %0, i64 88
  %63 = load ptr, ptr %62, align 8
  %64 = getelementptr inbounds i8, ptr %0, i64 160
  %65 = load ptr, ptr %64, align 8
  %66 = tail call ptr @lxb_html_tokenizer_error_add(ptr noundef %63, ptr noundef %65, i32 noundef 13) #5
  %67 = getelementptr inbounds i8, ptr %0, i64 128
  %68 = load ptr, ptr %67, align 8
  %69 = getelementptr inbounds i8, ptr %0, i64 64
  %70 = load ptr, ptr %69, align 8
  %71 = getelementptr inbounds i8, ptr %70, i64 32
  store ptr %68, ptr %71, align 8
  %72 = load ptr, ptr %39, align 8
  %73 = load ptr, ptr %69, align 8
  %74 = getelementptr inbounds i8, ptr %73, i64 40
  store ptr %72, ptr %74, align 8
  %75 = getelementptr inbounds i8, ptr %0, i64 16
  %76 = load ptr, ptr %75, align 8
  %77 = load ptr, ptr %69, align 8
  %78 = getelementptr inbounds i8, ptr %0, i64 24
  %79 = load ptr, ptr %78, align 8
  %80 = tail call ptr %76(ptr noundef nonnull %0, ptr noundef %77, ptr noundef %79) #5
  store ptr %80, ptr %69, align 8
  %81 = icmp eq ptr %80, null
  br i1 %81, label %82, label %87

82:                                               ; preds = %59
  %83 = getelementptr inbounds i8, ptr %0, i64 232
  %84 = load i32, ptr %83, align 8
  %85 = icmp eq i32 %84, 0
  br i1 %85, label %86, label %112

86:                                               ; preds = %82
  store i32 1, ptr %83, align 8
  br label %112

87:                                               ; preds = %59
  tail call void @llvm.memset.p0.i64(ptr noundef nonnull align 8 dereferenceable(96) %80, i8 0, i64 96, i1 false)
  br label %112

88:                                               ; preds = %3, %34
  %89 = getelementptr inbounds i8, ptr %0, i64 136
  %90 = load ptr, ptr %89, align 8
  %91 = getelementptr inbounds i8, ptr %90, i64 1
  %92 = getelementptr inbounds i8, ptr %0, i64 144
  %93 = load ptr, ptr %92, align 8
  %94 = icmp ugt ptr %91, %93
  br i1 %94, label %95, label %109

95:                                               ; preds = %88
  %96 = getelementptr inbounds i8, ptr %0, i64 128
  %97 = load ptr, ptr %96, align 8
  %98 = ptrtoint ptr %97 to i64
  %99 = ptrtoint ptr %93 to i64
  %100 = add i64 %99, 4097
  %101 = sub i64 %100, %98
  %102 = tail call ptr @lexbor_realloc(ptr noundef %97, i64 noundef %101) #5
  store ptr %102, ptr %96, align 8
  %103 = icmp eq ptr %102, null
  br i1 %103, label %lxb_html_tokenizer_temp_append.exit55, label %lxb_html_tokenizer_temp_realloc.exit.thread.i54

lxb_html_tokenizer_temp_realloc.exit.thread.i54:  ; preds = %95
  %104 = ptrtoint ptr %90 to i64
  %105 = sub i64 %104, %98
  %106 = getelementptr inbounds i8, ptr %102, i64 %105
  %107 = getelementptr inbounds i8, ptr %102, i64 %101
  store ptr %107, ptr %92, align 8
  br label %109

lxb_html_tokenizer_temp_append.exit55:            ; preds = %95
  %108 = getelementptr inbounds i8, ptr %0, i64 232
  store i32 2, ptr %108, align 8
  br label %112

109:                                              ; preds = %88, %lxb_html_tokenizer_temp_realloc.exit.thread.i54
  %110 = phi ptr [ %106, %lxb_html_tokenizer_temp_realloc.exit.thread.i54 ], [ %90, %88 ]
  store i8 45, ptr %110, align 1
  %111 = getelementptr inbounds i8, ptr %110, i64 1
  store ptr %111, ptr %89, align 8
  store ptr @lxb_html_tokenizer_state_comment, ptr %0, align 8
  br label %112

112:                                              ; preds = %lxb_html_tokenizer_temp_append.exit55, %lxb_html_tokenizer_temp_append.exit, %82, %86, %27, %31, %109, %87, %32, %5
  %.0 = phi ptr [ %6, %5 ], [ %33, %32 ], [ %2, %87 ], [ %1, %109 ], [ %2, %31 ], [ %2, %27 ], [ %2, %lxb_html_tokenizer_temp_append.exit ], [ %2, %86 ], [ %2, %82 ], [ %2, %lxb_html_tokenizer_temp_append.exit55 ]
  ret ptr %.0
}